target datalayout = "e-m:e-p270:32:32-p271:32:32-p272:64:64-i64:64-i128:128-f80:128-n8:16:32:64-S128"
target triple = "x86_64-pc-linux-gnu"

%struct.varattrib_1b = type { i8, [0 x i8] }
%struct.varattrib_1b_e = type { i8, i8, [0 x i8] }

; Function Attrs: inlinehint nounwind uwtable
define internal ptr @DatumGetPointer(i64 noundef %0) #2 {
  %2 = alloca i64, align 8
  store i64 %0, ptr %2, align 8
  %3 = load i64, ptr %2, align 8
  %4 = inttoptr i64 %3 to ptr
  ret ptr %4
}

; Function Attrs: nounwind uwtable
define dso_local i64 @datumEstimateSpace(i64 noundef %0, i1 noundef zeroext %1, i1 noundef zeroext %2, i32 noundef %3) #0 {
  %5 = alloca i64, align 8
  %6 = alloca i8, align 1
  %7 = alloca i8, align 1
  %8 = alloca i32, align 4
  %9 = alloca i64, align 8
  store i64 %0, ptr %5, align 8
  %10 = zext i1 %1 to i8
  store i8 %10, ptr %6, align 1
  %11 = zext i1 %2 to i8
  store i8 %11, ptr %7, align 1
  store i32 %3, ptr %8, align 4
  call void @llvm.lifetime.start.p0(i64 8, ptr %9) #7
  store i64 4, ptr %9, align 8
  %12 = load i8, ptr %6, align 1, !range !4, !noundef !5
  %13 = trunc i8 %12 to i1
  br i1 %13, label %54, label %14

14:                                               ; preds = %4
  %15 = load i8, ptr %7, align 1, !range !4, !noundef !5
  %16 = trunc i8 %15 to i1
  br i1 %16, label %17, label %20

17:                                               ; preds = %14
  %18 = load i64, ptr %9, align 8
  %19 = add i64 %18, 8
  store i64 %19, ptr %9, align 8
  br label %53

20:                                               ; preds = %14
  %21 = load i32, ptr %8, align 4
  %22 = icmp eq i32 %21, -1
  br i1 %22, label %23, label %44

23:                                               ; preds = %20
  %24 = load i64, ptr %5, align 8
  %25 = call ptr @DatumGetPointer(i64 noundef %24)
  %26 = getelementptr inbounds nuw %struct.varattrib_1b, ptr %25, i32 0, i32 0
  %27 = load i8, ptr %26, align 1
  %28 = zext i8 %27 to i32
  %29 = icmp eq i32 %28, 1
  br i1 %29, label %30, label %44

30:                                               ; preds = %23
  %31 = load i64, ptr %5, align 8
  %32 = call ptr @DatumGetPointer(i64 noundef %31)
  %33 = getelementptr inbounds nuw %struct.varattrib_1b_e, ptr %32, i32 0, i32 1
  %34 = load i8, ptr %33, align 1
  %35 = zext i8 %34 to i32
  %36 = and i32 %35, -2
  %37 = icmp eq i32 %36, 2
  br i1 %37, label %38, label %44

38:                                               ; preds = %30
  %39 = load i64, ptr %5, align 8
  %40 = call ptr @DatumGetEOHP(i64 noundef %39)
  %41 = call i64 @EOH_get_flat_size(ptr noundef %40)
  %42 = load i64, ptr %9, align 8
  %43 = add i64 %42, %41
  store i64 %43, ptr %9, align 8
  br label %52

44:                                               ; preds = %30, %23, %20
  %45 = load i64, ptr %5, align 8
  %46 = load i8, ptr %7, align 1, !range !4, !noundef !5
  %47 = trunc i8 %46 to i1
  %48 = load i32, ptr %8, align 4
  %49 = call i64 @datumGetSize(i64 noundef %45, i1 noundef zeroext %47, i32 noundef %48)
  %50 = load i64, ptr %9, align 8
  %51 = add i64 %50, %49
  store i64 %51, ptr %9, align 8
  br label %52

52:                                               ; preds = %44, %38
  br label %53

53:                                               ; preds = %52, %17
  br label %54

54:                                               ; preds = %53, %4
  %55 = load i64, ptr %9, align 8
  call void @llvm.lifetime.end.p0(i64 8, ptr %9) #7
  ret i64 %55
}