; Function Attrs: nounwind uwtable
define dso_local i64 @datumEstimateSpace(i64 noundef %0, i1 noundef zeroext %1, i1 noundef zeroext %2, i32 noundef %3) local_unnamed_addr #0 {
  %brmerge = or i1 %1, %2
  %.mux = select i1 %1, i64 4, i64 12
  br i1 %brmerge, label %23, label %5

5:                                                ; preds = %4
  %6 = icmp eq i32 %3, -1
  br i1 %6, label %7, label %20

7:                                                ; preds = %5
  %8 = inttoptr i64 %0 to ptr
  %9 = load i8, ptr %8, align 1
  %10 = icmp eq i8 %9, 1
  br i1 %10, label %11, label %20

11:                                               ; preds = %7
  %12 = getelementptr inbounds nuw i8, ptr %8, i64 1
  %13 = load i8, ptr %12, align 1
  %14 = and i8 %13, -2
  %15 = icmp eq i8 %14, 2
  br i1 %15, label %16, label %20

16:                                               ; preds = %11
  %17 = tail call ptr @DatumGetEOHP(i64 noundef %0) #9
  %18 = tail call i64 @EOH_get_flat_size(ptr noundef %17) #9
  %19 = add i64 %18, 4
  br label %23

20:                                               ; preds = %11, %7, %5
  %21 = tail call i64 @datumGetSize(i64 noundef %0, i1 noundef zeroext false, i32 noundef %3)
  %22 = add i64 %21, 4
  br label %23

23:                                               ; preds = %4, %20, %16
  %.0 = phi i64 [ %.mux, %4 ], [ %19, %16 ], [ %22, %20 ]
  ret i64 %.0
}